target datalayout = "e-m:e-p270:32:32-p271:32:32-p272:64:64-i64:64-i128:128-f80:128-n8:16:32:64-S128"
target triple = "x86_64-pc-linux-gnu"

; Function Attrs: nounwind uwtable
define void @lv_text_encoded_letter_next_2(ptr noundef %0, ptr noundef %1, ptr noundef %2, ptr noundef %3) #0 {
  %5 = alloca ptr, align 8
  %6 = alloca ptr, align 8
  %7 = alloca ptr, align 8
  %8 = alloca ptr, align 8
  store ptr %0, ptr %5, align 8, !tbaa !3
  store ptr %1, ptr %6, align 8, !tbaa !3
  store ptr %2, ptr %7, align 8, !tbaa !3
  store ptr %3, ptr %8, align 8, !tbaa !3
  %9 = load ptr, ptr %5, align 8, !tbaa !3
  %10 = load ptr, ptr %8, align 8, !tbaa !3
  %11 = call i32 @lv_text_utf8_next(ptr noundef %9, ptr noundef %10)
  %12 = load ptr, ptr %6, align 8, !tbaa !3
  store i32 %11, ptr %12, align 4, !tbaa !8
  %13 = load ptr, ptr %6, align 8, !tbaa !3
  %14 = load i32, ptr %13, align 4, !tbaa !8
  %15 = icmp ne i32 %14, 0
  br i1 %15, label %16, label %23

16:                                               ; preds = %4
  %17 = load ptr, ptr %5, align 8, !tbaa !3
  %18 = load ptr, ptr %8, align 8, !tbaa !3
  %19 = load i32, ptr %18, align 4, !tbaa !8
  %20 = zext i32 %19 to i64
  %21 = getelementptr inbounds nuw i8, ptr %17, i64 %20
  %22 = call i32 @lv_text_utf8_next(ptr noundef %21, ptr noundef null)
  br label %24

23:                                               ; preds = %4
  br label %24

24:                                               ; preds = %23, %16
  %25 = phi i32 [ %22, %16 ], [ 0, %23 ]
  %26 = load ptr, ptr %7, align 8, !tbaa !3
  store i32 %25, ptr %26, align 4, !tbaa !8
  ret void
}

; Function Attrs: nounwind uwtable
define i32 @lv_text_get_width(ptr noundef %0, i32 noundef %1, ptr noundef %2, i32 noundef %3) #0 {
  %5 = alloca i32, align 4
  %6 = alloca ptr, align 8
  %7 = alloca i32, align 4
  %8 = alloca ptr, align 8
  %9 = alloca i32, align 4
  %10 = alloca i32, align 4
  %11 = alloca i32, align 4
  %12 = alloca i32, align 4
  %13 = alloca i32, align 4
  %14 = alloca i32, align 4
  store ptr %0, ptr %6, align 8, !tbaa !3
  store i32 %1, ptr %7, align 4, !tbaa !8
  store ptr %2, ptr %8, align 8, !tbaa !3
  store i32 %3, ptr %9, align 4, !tbaa !8
  %15 = load ptr, ptr %6, align 8, !tbaa !3
  %16 = icmp eq ptr %15, null
  br i1 %16, label %17, label %18

17:                                               ; preds = %4
  store i32 0, ptr %5, align 4
  br label %64

18:                                               ; preds = %4
  %19 = load ptr, ptr %8, align 8, !tbaa !3
  %20 = icmp eq ptr %19, null
  br i1 %20, label %21, label %22

21:                                               ; preds = %18
  store i32 0, ptr %5, align 4
  br label %64

22:                                               ; preds = %18
  %23 = load ptr, ptr %6, align 8, !tbaa !3
  %24 = getelementptr inbounds i8, ptr %23, i64 0
  %25 = load i8, ptr %24, align 1, !tbaa !7
  %26 = sext i8 %25 to i32
  %27 = icmp eq i32 %26, 0
  br i1 %27, label %28, label %29

28:                                               ; preds = %22
  store i32 0, ptr %5, align 4
  br label %64

29:                                               ; preds = %22
  call void @llvm.lifetime.start.p0(i64 4, ptr %10) #5
  store i32 0, ptr %10, align 4, !tbaa !8
  call void @llvm.lifetime.start.p0(i64 4, ptr %11) #5
  store i32 0, ptr %11, align 4, !tbaa !8
  %30 = load i32, ptr %7, align 4, !tbaa !8
  %31 = icmp ne i32 %30, 0
  br i1 %31, label %32, label %62

32:                                               ; preds = %29
  br label %33

33:                                               ; preds = %53, %32
  %34 = load i32, ptr %10, align 4, !tbaa !8
  %35 = load i32, ptr %7, align 4, !tbaa !8
  %36 = icmp ult i32 %34, %35
  br i1 %36, label %37, label %54

37:                                               ; preds = %33
  call void @llvm.lifetime.start.p0(i64 4, ptr %12) #5
  call void @llvm.lifetime.start.p0(i64 4, ptr %13) #5
  %38 = load ptr, ptr %6, align 8, !tbaa !3
  call void @lv_text_encoded_letter_next_2(ptr noundef %38, ptr noundef %12, ptr noundef %13, ptr noundef %10)
  call void @llvm.lifetime.start.p0(i64 4, ptr %14) #5
  %39 = load ptr, ptr %8, align 8, !tbaa !3
  %40 = load i32, ptr %12, align 4, !tbaa !8
  %41 = load i32, ptr %13, align 4, !tbaa !8
  %42 = call zeroext i16 @lv_font_get_glyph_width(ptr noundef %39, i32 noundef %40, i32 noundef %41)
  %43 = zext i16 %42 to i32
  store i32 %43, ptr %14, align 4, !tbaa !8
  %44 = load i32, ptr %14, align 4, !tbaa !8
  %45 = icmp sgt i32 %44, 0
  br i1 %45, label %46, label %53

46:                                               ; preds = %37
  %47 = load i32, ptr %14, align 4, !tbaa !8
  %48 = load i32, ptr %11, align 4, !tbaa !8
  %49 = add nsw i32 %48, %47
  store i32 %49, ptr %11, align 4, !tbaa !8
  %50 = load i32, ptr %9, align 4, !tbaa !8
  %51 = load i32, ptr %11, align 4, !tbaa !8
  %52 = add nsw i32 %51, %50
  store i32 %52, ptr %11, align 4, !tbaa !8
  br label %53

53:                                               ; preds = %46, %37
  call void @llvm.lifetime.end.p0(i64 4, ptr %14) #5
  call void @llvm.lifetime.end.p0(i64 4, ptr %13) #5
  call void @llvm.lifetime.end.p0(i64 4, ptr %12) #5
  br label %33, !llvm.loop !24

54:                                               ; preds = %33
  %55 = load i32, ptr %11, align 4, !tbaa !8
  %56 = icmp sgt i32 %55, 0
  br i1 %56, label %57, label %61

57:                                               ; preds = %54
  %58 = load i32, ptr %9, align 4, !tbaa !8
  %59 = load i32, ptr %11, align 4, !tbaa !8
  %60 = sub nsw i32 %59, %58
  store i32 %60, ptr %11, align 4, !tbaa !8
  br label %61

61:                                               ; preds = %57, %54
  br label %62

62:                                               ; preds = %61, %29
  %63 = load i32, ptr %11, align 4, !tbaa !8
  store i32 %63, ptr %5, align 4
  call void @llvm.lifetime.end.p0(i64 4, ptr %11) #5
  call void @llvm.lifetime.end.p0(i64 4, ptr %10) #5
  br label %64

64:                                               ; preds = %62, %28, %21, %17
  %65 = load i32, ptr %5, align 4
  ret i32 %65
}