; Function Attrs: nounwind uwtable
define i32 @lv_text_get_width(ptr noundef readonly %0, i32 noundef %1, ptr noundef %2, i32 noundef %3) local_unnamed_addr #2 {
  %5 = alloca i32, align 4
  %6 = icmp eq ptr %0, null
  %7 = icmp eq ptr %2, null
  %or.cond = or i1 %6, %7
  br i1 %or.cond, label %28, label %8

8:                                                ; preds = %4
  %9 = load i8, ptr %0, align 1, !tbaa !3
  %10 = icmp eq i8 %9, 0
  br i1 %10, label %28, label %11

11:                                               ; preds = %8
  call void @llvm.lifetime.start.p0(i64 4, ptr nonnull %5) #11
  store i32 0, ptr %5, align 4, !tbaa !6
  %.not = icmp eq i32 %1, 0
  br i1 %.not, label %27, label %.lr.ph

.lr.ph:                                           ; preds = %11, %lv_text_encoded_letter_next_2.exit
  %.122 = phi i32 [ %.2, %lv_text_encoded_letter_next_2.exit ], [ 0, %11 ]
  %12 = call i32 @lv_text_utf8_next(ptr noundef nonnull readonly %0, ptr noundef nonnull %5)
  %.not.i = icmp eq i32 %12, 0
  br i1 %.not.i, label %lv_text_encoded_letter_next_2.exit, label %13

13:                                               ; preds = %.lr.ph
  %14 = load i32, ptr %5, align 4, !tbaa !6
  %15 = zext i32 %14 to i64
  %16 = getelementptr inbounds nuw i8, ptr %0, i64 %15
  %17 = call i32 @lv_text_utf8_next(ptr noundef nonnull readonly %16, ptr noundef null)
  br label %lv_text_encoded_letter_next_2.exit

lv_text_encoded_letter_next_2.exit:               ; preds = %.lr.ph, %13
  %18 = phi i32 [ %17, %13 ], [ 0, %.lr.ph ]
  %19 = call zeroext i16 @lv_font_get_glyph_width(ptr noundef nonnull %2, i32 noundef %12, i32 noundef %18) #11
  %.not20 = icmp eq i16 %19, 0
  %20 = zext i16 %19 to i32
  %21 = add i32 %.122, %3
  %22 = add i32 %21, %20
  %.2 = select i1 %.not20, i32 %.122, i32 %22
  %23 = load i32, ptr %5, align 4, !tbaa !6
  %24 = icmp ult i32 %23, %1
  br i1 %24, label %.lr.ph, label %._crit_edge, !llvm.loop !17

._crit_edge:                                      ; preds = %lv_text_encoded_letter_next_2.exit
  %25 = icmp sgt i32 %.2, 0
  %26 = select i1 %25, i32 %3, i32 0
  %spec.select = sub nsw i32 %.2, %26
  br label %27

27:                                               ; preds = %._crit_edge, %11
  %.016 = phi i32 [ 0, %11 ], [ %spec.select, %._crit_edge ]
  call void @llvm.lifetime.end.p0(i64 4, ptr nonnull %5) #11
  br label %28

28:                                               ; preds = %8, %4, %27
  %.0 = phi i32 [ %.016, %27 ], [ 0, %4 ], [ 0, %8 ]
  ret i32 %.0
}